target datalayout = "e-m:e-p270:32:32-p271:32:32-p272:64:64-i64:64-i128:128-f80:128-n8:16:32:64-S128"
target triple = "x86_64-unknown-linux-gnu"

%"class.llvh::DenseMap.0" = type <{ ptr, i32, i32, i32, [4 x i8] }>
%"class.llvh::SmallVectorImpl" = type { %"class.llvh::SmallVectorTemplateBase" }
%"class.llvh::SmallVectorTemplateBase" = type { %"class.llvh::SmallVectorTemplateCommon" }
%"class.llvh::SmallVectorTemplateCommon" = type { %"class.llvh::SmallVectorBase" }
%"class.llvh::SmallVectorBase" = type { ptr, i32, i32 }
%"struct.llvh::AlignedCharArrayUnion" = type { %"struct.llvh::AlignedCharArray" }
%"struct.llvh::AlignedCharArray" = type { [8 x i8] }
%"class.hermes::Register" = type { i32 }
%"class.hermes::hbc::HBCISel" = type { ptr, ptr, ptr, ptr, ptr, %"class.llvh::DenseMap.22", %"class.llvh::DenseSet", %"class.llvh::SmallVector.28", %"class.llvh::DenseMap.0", %"class.llvh::DenseMap.34", ptr, %"class.llvh::DenseMap.37", %"class.hermes::Identifier", i8, i8, [6 x i8], %"class.llvh::DenseMap.40", %"class.llvh::DenseMap.40", ptr, ptr }
%"class.llvh::DenseMap.22" = type <{ ptr, i32, i32, i32, [4 x i8] }>
%"class.llvh::DenseSet" = type { %"class.llvh::detail::DenseSetImpl" }
%"class.llvh::detail::DenseSetImpl" = type { %"class.llvh::DenseMap.25" }
%"class.llvh::DenseMap.25" = type <{ ptr, i32, i32, i32, [4 x i8] }>
%"class.llvh::SmallVector.28" = type { %"class.llvh::SmallVectorImpl.29", %"struct.llvh::SmallVectorStorage.32" }
%"class.llvh::SmallVectorImpl.29" = type { %"class.llvh::SmallVectorTemplateBase.30" }
%"class.llvh::SmallVectorTemplateBase.30" = type { %"class.llvh::SmallVectorTemplateCommon.31" }
%"class.llvh::SmallVectorTemplateCommon.31" = type { %"class.llvh::SmallVectorBase" }
%"struct.llvh::SmallVectorStorage.32" = type { [8 x %"struct.llvh::AlignedCharArrayUnion.33"] }
%"struct.llvh::AlignedCharArrayUnion.33" = type { %"struct.llvh::AlignedCharArray.21" }
%"struct.llvh::AlignedCharArray.21" = type { [16 x i8] }
%"class.llvh::DenseMap.34" = type <{ ptr, i32, i32, i32, [4 x i8] }>
%"class.llvh::DenseMap.37" = type <{ ptr, i32, i32, i32, [4 x i8] }>
%"class.hermes::Identifier" = type { ptr }
%"class.llvh::DenseMap.40" = type <{ ptr, i32, i32, i32, [4 x i8] }>
%"class.hermes::Value" = type { i8, %"class.hermes::Type", %"class.llvh::SmallVector.13" }
%"class.hermes::Type" = type { i16, i16 }
%"class.llvh::SmallVector.13" = type { %"class.llvh::SmallVectorImpl", %"struct.llvh::SmallVectorStorage.14" }
%"struct.llvh::SmallVectorStorage.14" = type { [2 x %"struct.llvh::AlignedCharArrayUnion"] }

; Function Attrs: mustprogress nounwind uwtable
define linkonce_odr hidden noundef zeroext i1 @_ZN6hermes8Variable7classofEPKNS_5ValueE(ptr noundef %V) #0 comdat align 2 {
entry:
  %V.addr = alloca ptr, align 8
  store ptr %V, ptr %V.addr, align 8
  %0 = load ptr, ptr %V.addr, align 8
  %call = call noundef zeroext i8 @_ZNK6hermes5Value7getKindEv(ptr noundef nonnull align 8 dereferenceable(40) %0)
  %cmp = icmp eq i8 %call, 124
  ret i1 %cmp
}

; Function Attrs: mustprogress nounwind uwtable
define internal noundef zeroext i1 @_ZN6hermesL7kindIsAENS_9ValueKindES0_(i8 noundef zeroext %kind, i8 noundef zeroext %base) #0 {
entry:
  %retval = alloca i1, align 1
  %kind.addr = alloca i8, align 1
  %base.addr = alloca i8, align 1
  store i8 %kind, ptr %kind.addr, align 1
  store i8 %base, ptr %base.addr, align 1
  %0 = load i8, ptr %base.addr, align 1
  switch i8 %0, label %sw.default [
    i8 1, label %sw.bb
    i8 3, label %sw.bb3
    i8 6, label %sw.bb8
    i8 11, label %sw.bb13
    i8 17, label %sw.bb18
    i8 36, label %sw.bb23
    i8 40, label %sw.bb28
    i8 46, label %sw.bb33
    i8 70, label %sw.bb38
    i8 76, label %sw.bb43
    i8 91, label %sw.bb48
    i8 110, label %sw.bb53
    i8 -128, label %sw.bb58
  ]

sw.default:                                       ; preds = %entry
  %1 = load i8, ptr %kind.addr, align 1
  %2 = load i8, ptr %base.addr, align 1
  %cmp = icmp eq i8 %1, %2
  store i1 %cmp, ptr %retval, align 1
  br label %return

sw.bb:                                            ; preds = %entry
  %3 = load i8, ptr %kind.addr, align 1
  %cmp1 = icmp uge i8 %3, 0
  br i1 %cmp1, label %land.rhs, label %land.end

land.rhs:                                         ; preds = %sw.bb
  %4 = load i8, ptr %kind.addr, align 1
  %cmp2 = icmp ule i8 %4, -122
  br label %land.end

land.end:                                         ; preds = %land.rhs, %sw.bb
  %5 = phi i1 [ false, %sw.bb ], [ %cmp2, %land.rhs ]
  store i1 %5, ptr %retval, align 1
  br label %return

sw.bb3:                                           ; preds = %entry
  %6 = load i8, ptr %kind.addr, align 1
  %cmp4 = icmp uge i8 %6, 2
  br i1 %cmp4, label %land.rhs5, label %land.end7

land.rhs5:                                        ; preds = %sw.bb3
  %7 = load i8, ptr %kind.addr, align 1
  %cmp6 = icmp ule i8 %7, 108
  br label %land.end7

land.end7:                                        ; preds = %land.rhs5, %sw.bb3
  %8 = phi i1 [ false, %sw.bb3 ], [ %cmp6, %land.rhs5 ]
  store i1 %8, ptr %retval, align 1
  br label %return

sw.bb8:                                           ; preds = %entry
  %9 = load i8, ptr %kind.addr, align 1
  %cmp9 = icmp uge i8 %9, 5
  br i1 %cmp9, label %land.rhs10, label %land.end12

land.rhs10:                                       ; preds = %sw.bb8
  %10 = load i8, ptr %kind.addr, align 1
  %cmp11 = icmp ule i8 %10, 15
  br label %land.end12

land.end12:                                       ; preds = %land.rhs10, %sw.bb8
  %11 = phi i1 [ false, %sw.bb8 ], [ %cmp11, %land.rhs10 ]
  store i1 %11, ptr %retval, align 1
  br label %return

sw.bb13:                                          ; preds = %entry
  %12 = load i8, ptr %kind.addr, align 1
  %cmp14 = icmp uge i8 %12, 10
  br i1 %cmp14, label %land.rhs15, label %land.end17

land.rhs15:                                       ; preds = %sw.bb13
  %13 = load i8, ptr %kind.addr, align 1
  %cmp16 = icmp ule i8 %13, 14
  br label %land.end17

land.end17:                                       ; preds = %land.rhs15, %sw.bb13
  %14 = phi i1 [ false, %sw.bb13 ], [ %cmp16, %land.rhs15 ]
  store i1 %14, ptr %retval, align 1
  br label %return

sw.bb18:                                          ; preds = %entry
  %15 = load i8, ptr %kind.addr, align 1
  %cmp19 = icmp uge i8 %15, 16
  br i1 %cmp19, label %land.rhs20, label %land.end22

land.rhs20:                                       ; preds = %sw.bb18
  %16 = load i8, ptr %kind.addr, align 1
  %cmp21 = icmp ule i8 %16, 32
  br label %land.end22

land.end22:                                       ; preds = %land.rhs20, %sw.bb18
  %17 = phi i1 [ false, %sw.bb18 ], [ %cmp21, %land.rhs20 ]
  store i1 %17, ptr %retval, align 1
  br label %return

sw.bb23:                                          ; preds = %entry
  %18 = load i8, ptr %kind.addr, align 1
  %cmp24 = icmp uge i8 %18, 35
  br i1 %cmp24, label %land.rhs25, label %land.end27

land.rhs25:                                       ; preds = %sw.bb23
  %19 = load i8, ptr %kind.addr, align 1
  %cmp26 = icmp ule i8 %19, 38
  br label %land.end27

land.end27:                                       ; preds = %land.rhs25, %sw.bb23
  %20 = phi i1 [ false, %sw.bb23 ], [ %cmp26, %land.rhs25 ]
  store i1 %20, ptr %retval, align 1
  br label %return

sw.bb28:                                          ; preds = %entry
  %21 = load i8, ptr %kind.addr, align 1
  %cmp29 = icmp uge i8 %21, 39
  br i1 %cmp29, label %land.rhs30, label %land.end32

land.rhs30:                                       ; preds = %sw.bb28
  %22 = load i8, ptr %kind.addr, align 1
  %cmp31 = icmp ule i8 %22, 42
  br label %land.end32

land.end32:                                       ; preds = %land.rhs30, %sw.bb28
  %23 = phi i1 [ false, %sw.bb28 ], [ %cmp31, %land.rhs30 ]
  store i1 %23, ptr %retval, align 1
  br label %return

sw.bb33:                                          ; preds = %entry
  %24 = load i8, ptr %kind.addr, align 1
  %cmp34 = icmp uge i8 %24, 45
  br i1 %cmp34, label %land.rhs35, label %land.end37

land.rhs35:                                       ; preds = %sw.bb33
  %25 = load i8, ptr %kind.addr, align 1
  %cmp36 = icmp ule i8 %25, 48
  br label %land.end37

land.end37:                                       ; preds = %land.rhs35, %sw.bb33
  %26 = phi i1 [ false, %sw.bb33 ], [ %cmp36, %land.rhs35 ]
  store i1 %26, ptr %retval, align 1
  br label %return

sw.bb38:                                          ; preds = %entry
  %27 = load i8, ptr %kind.addr, align 1
  %cmp39 = icmp uge i8 %27, 69
  br i1 %cmp39, label %land.rhs40, label %land.end42

land.rhs40:                                       ; preds = %sw.bb38
  %28 = load i8, ptr %kind.addr, align 1
  %cmp41 = icmp ule i8 %28, 74
  br label %land.end42

land.end42:                                       ; preds = %land.rhs40, %sw.bb38
  %29 = phi i1 [ false, %sw.bb38 ], [ %cmp41, %land.rhs40 ]
  store i1 %29, ptr %retval, align 1
  br label %return

sw.bb43:                                          ; preds = %entry
  %30 = load i8, ptr %kind.addr, align 1
  %cmp44 = icmp uge i8 %30, 75
  br i1 %cmp44, label %land.rhs45, label %land.end47

land.rhs45:                                       ; preds = %sw.bb43
  %31 = load i8, ptr %kind.addr, align 1
  %cmp46 = icmp ule i8 %31, 89
  br label %land.end47

land.end47:                                       ; preds = %land.rhs45, %sw.bb43
  %32 = phi i1 [ false, %sw.bb43 ], [ %cmp46, %land.rhs45 ]
  store i1 %32, ptr %retval, align 1
  br label %return

sw.bb48:                                          ; preds = %entry
  %33 = load i8, ptr %kind.addr, align 1
  %cmp49 = icmp uge i8 %33, 90
  br i1 %cmp49, label %land.rhs50, label %land.end52

land.rhs50:                                       ; preds = %sw.bb48
  %34 = load i8, ptr %kind.addr, align 1
  %cmp51 = icmp ule i8 %34, 97
  br label %land.end52

land.end52:                                       ; preds = %land.rhs50, %sw.bb48
  %35 = phi i1 [ false, %sw.bb48 ], [ %cmp51, %land.rhs50 ]
  store i1 %35, ptr %retval, align 1
  br label %return

sw.bb53:                                          ; preds = %entry
  %36 = load i8, ptr %kind.addr, align 1
  %cmp54 = icmp uge i8 %36, 109
  br i1 %cmp54, label %land.rhs55, label %land.end57

land.rhs55:                                       ; preds = %sw.bb53
  %37 = load i8, ptr %kind.addr, align 1
  %cmp56 = icmp ule i8 %37, 119
  br label %land.end57

land.end57:                                       ; preds = %land.rhs55, %sw.bb53
  %38 = phi i1 [ false, %sw.bb53 ], [ %cmp56, %land.rhs55 ]
  store i1 %38, ptr %retval, align 1
  br label %return

sw.bb58:                                          ; preds = %entry
  %39 = load i8, ptr %kind.addr, align 1
  %cmp59 = icmp uge i8 %39, 127
  br i1 %cmp59, label %land.rhs60, label %land.end62

land.rhs60:                                       ; preds = %sw.bb58
  %40 = load i8, ptr %kind.addr, align 1
  %cmp61 = icmp ule i8 %40, -124
  br label %land.end62

land.end62:                                       ; preds = %land.rhs60, %sw.bb58
  %41 = phi i1 [ false, %sw.bb58 ], [ %cmp61, %land.rhs60 ]
  store i1 %41, ptr %retval, align 1
  br label %return

return:                                           ; preds = %land.end62, %land.end57, %land.end52, %land.end47, %land.end42, %land.end37, %land.end32, %land.end27, %land.end22, %land.end17, %land.end12, %land.end7, %land.end, %sw.default
  %42 = load i1, ptr %retval, align 1
  ret i1 %42
}

; Function Attrs: mustprogress nounwind uwtable
define linkonce_odr hidden noundef zeroext i8 @_ZNK6hermes5Value7getKindEv(ptr noundef nonnull align 8 dereferenceable(40) %this) #0 comdat align 2 {
entry:
  %this.addr = alloca ptr, align 8
  store ptr %this, ptr %this.addr, align 8
  %this1 = load ptr, ptr %this.addr, align 8
  %Kind = getelementptr inbounds %"class.hermes::Value", ptr %this1, i32 0, i32 0
  %0 = load i8, ptr %Kind, align 8
  ret i8 %0
}

; Function Attrs: mustprogress nounwind uwtable
define linkonce_odr hidden noundef zeroext i1 @_ZN4llvh8isa_implIN6hermes8VariableENS1_5ValueEvE4doitERKS3_(ptr noundef nonnull align 8 dereferenceable(40) %Val) #0 comdat align 2 {
entry:
  %Val.addr = alloca ptr, align 8
  store ptr %Val, ptr %Val.addr, align 8
  %0 = load ptr, ptr %Val.addr, align 8
  %call = call noundef zeroext i1 @_ZN6hermes8Variable7classofEPKNS_5ValueE(ptr noundef %0)
  ret i1 %call
}

; Function Attrs: mustprogress nounwind uwtable
define linkonce_odr hidden noundef zeroext i1 @_ZN6hermes11Instruction7classofEPKNS_5ValueE(ptr noundef %V) #0 comdat align 2 {
entry:
  %V.addr = alloca ptr, align 8
  store ptr %V, ptr %V.addr, align 8
  %0 = load ptr, ptr %V.addr, align 8
  %call = call noundef zeroext i8 @_ZNK6hermes5Value7getKindEv(ptr noundef nonnull align 8 dereferenceable(40) %0)
  %call1 = call noundef zeroext i1 @_ZN6hermesL7kindIsAENS_9ValueKindES0_(i8 noundef zeroext %call, i8 noundef zeroext 3)
  ret i1 %call1
}

; Function Attrs: mustprogress nounwind uwtable
define linkonce_odr hidden noundef zeroext i1 @_ZN4llvh11isa_impl_clIN6hermes8VariableEPKNS1_5ValueEE4doitES5_(ptr noundef %Val) #0 comdat align 2 {
entry:
  %Val.addr = alloca ptr, align 8
  store ptr %Val, ptr %Val.addr, align 8
  %0 = load ptr, ptr %Val.addr, align 8
  %call = call noundef zeroext i1 @_ZN4llvh8isa_implIN6hermes8VariableENS1_5ValueEvE4doitERKS3_(ptr noundef nonnull align 8 dereferenceable(40) %0)
  ret i1 %call
}

; Function Attrs: mustprogress nounwind uwtable
define linkonce_odr hidden noundef zeroext i1 @_ZN4llvh8isa_implIN6hermes11InstructionENS1_5ValueEvE4doitERKS3_(ptr noundef nonnull align 8 dereferenceable(40) %Val) #0 comdat align 2 {
entry:
  %Val.addr = alloca ptr, align 8
  store ptr %Val, ptr %Val.addr, align 8
  %0 = load ptr, ptr %Val.addr, align 8
  %call = call noundef zeroext i1 @_ZN6hermes11Instruction7classofEPKNS_5ValueE(ptr noundef %0)
  ret i1 %call
}

; Function Attrs: mustprogress nounwind uwtable
define linkonce_odr hidden noundef zeroext i1 @_ZN4llvh13isa_impl_wrapIN6hermes8VariableEPKNS1_5ValueES5_E4doitERKS5_(ptr noundef nonnull align 8 dereferenceable(8) %Val) #0 comdat align 2 {
entry:
  %Val.addr = alloca ptr, align 8
  store ptr %Val, ptr %Val.addr, align 8
  %0 = load ptr, ptr %Val.addr, align 8
  %1 = load ptr, ptr %0, align 8
  %call = call noundef zeroext i1 @_ZN4llvh11isa_impl_clIN6hermes8VariableEPKNS1_5ValueEE4doitES5_(ptr noundef %1)
  ret i1 %call
}

; Function Attrs: mustprogress nounwind uwtable
define linkonce_odr hidden noundef zeroext i1 @_ZN4llvh11isa_impl_clIN6hermes11InstructionEPKNS1_5ValueEE4doitES5_(ptr noundef %Val) #0 comdat align 2 {
entry:
  %Val.addr = alloca ptr, align 8
  store ptr %Val, ptr %Val.addr, align 8
  %0 = load ptr, ptr %Val.addr, align 8
  %call = call noundef zeroext i1 @_ZN4llvh8isa_implIN6hermes11InstructionENS1_5ValueEvE4doitERKS3_(ptr noundef nonnull align 8 dereferenceable(40) %0)
  ret i1 %call
}

; Function Attrs: mustprogress nounwind uwtable
define linkonce_odr hidden noundef nonnull align 8 dereferenceable(8) ptr @_ZN4llvh13simplify_typeIPN6hermes5ValueEE18getSimplifiedValueERS3_(ptr noundef nonnull align 8 dereferenceable(8) %Val) #0 comdat align 2 {
entry:
  %Val.addr = alloca ptr, align 8
  store ptr %Val, ptr %Val.addr, align 8
  %0 = load ptr, ptr %Val.addr, align 8
  ret ptr %0
}

; Function Attrs: mustprogress nounwind uwtable
define linkonce_odr hidden noundef ptr @_ZN4llvh16cast_convert_valIN6hermes8VariableEPNS1_5ValueES4_E4doitERKS4_(ptr noundef nonnull align 8 dereferenceable(8) %Val) #0 comdat align 2 {
entry:
  %Val.addr = alloca ptr, align 8
  %Res2 = alloca ptr, align 8
  store ptr %Val, ptr %Val.addr, align 8
  %0 = load ptr, ptr %Val.addr, align 8
  %1 = load ptr, ptr %0, align 8
  store ptr %1, ptr %Res2, align 8
  %2 = load ptr, ptr %Res2, align 8
  ret ptr %2
}

; Function Attrs: mustprogress nounwind uwtable
define linkonce_odr hidden noundef zeroext i1 @_ZN4llvh13isa_impl_wrapIN6hermes8VariableEKPNS1_5ValueEPKS3_E4doitERS5_(ptr noundef nonnull align 8 dereferenceable(8) %Val) #0 comdat align 2 {
entry:
  %Val.addr = alloca ptr, align 8
  %ref.tmp = alloca ptr, align 8
  store ptr %Val, ptr %Val.addr, align 8
  %0 = load ptr, ptr %Val.addr, align 8
  %call = call noundef ptr @_ZN4llvh13simplify_typeIKPN6hermes5ValueEE18getSimplifiedValueERS4_(ptr noundef nonnull align 8 dereferenceable(8) %0)
  store ptr %call, ptr %ref.tmp, align 8
  %call1 = call noundef zeroext i1 @_ZN4llvh13isa_impl_wrapIN6hermes8VariableEPKNS1_5ValueES5_E4doitERKS5_(ptr noundef nonnull align 8 dereferenceable(8) %ref.tmp)
  ret i1 %call1
}

; Function Attrs: mustprogress nounwind uwtable
define linkonce_odr hidden noundef zeroext i1 @_ZN4llvh13isa_impl_wrapIN6hermes11InstructionEPKNS1_5ValueES5_E4doitERKS5_(ptr noundef nonnull align 8 dereferenceable(8) %Val) #0 comdat align 2 {
entry:
  %Val.addr = alloca ptr, align 8
  store ptr %Val, ptr %Val.addr, align 8
  %0 = load ptr, ptr %Val.addr, align 8
  %1 = load ptr, ptr %0, align 8
  %call = call noundef zeroext i1 @_ZN4llvh11isa_impl_clIN6hermes11InstructionEPKNS1_5ValueEE4doitES5_(ptr noundef %1)
  ret i1 %call
}

; Function Attrs: mustprogress nounwind uwtable
define linkonce_odr hidden noundef ptr @_ZN4llvh13simplify_typeIKPN6hermes5ValueEE18getSimplifiedValueERS4_(ptr noundef nonnull align 8 dereferenceable(8) %Val) #0 comdat align 2 {
entry:
  %Val.addr = alloca ptr, align 8
  store ptr %Val, ptr %Val.addr, align 8
  %0 = load ptr, ptr %Val.addr, align 8
  %call = call noundef nonnull align 8 dereferenceable(8) ptr @_ZN4llvh13simplify_typeIPN6hermes5ValueEE18getSimplifiedValueERS3_(ptr noundef nonnull align 8 dereferenceable(8) %0)
  %1 = load ptr, ptr %call, align 8
  ret ptr %1
}

; Function Attrs: mustprogress nounwind uwtable
define linkonce_odr hidden noundef ptr @_ZN4llvh4castIN6hermes8VariableENS1_5ValueEEENS_10cast_rettyIT_PT0_E8ret_typeES7_(ptr noundef %Val) #0 comdat {
entry:
  %Val.addr = alloca ptr, align 8
  store ptr %Val, ptr %Val.addr, align 8
  %call = call noundef ptr @_ZN4llvh16cast_convert_valIN6hermes8VariableEPNS1_5ValueES4_E4doitERKS4_(ptr noundef nonnull align 8 dereferenceable(8) %Val.addr)
  ret ptr %call
}

; Function Attrs: mustprogress nounwind uwtable
define linkonce_odr hidden noundef zeroext i1 @_ZN4llvh3isaIN6hermes8VariableEPNS1_5ValueEEEbRKT0_(ptr noundef nonnull align 8 dereferenceable(8) %Val) #0 comdat {
entry:
  %Val.addr = alloca ptr, align 8
  store ptr %Val, ptr %Val.addr, align 8
  %0 = load ptr, ptr %Val.addr, align 8
  %call = call noundef zeroext i1 @_ZN4llvh13isa_impl_wrapIN6hermes8VariableEKPNS1_5ValueEPKS3_E4doitERS5_(ptr noundef nonnull align 8 dereferenceable(8) %0)
  ret i1 %call
}

; Function Attrs: mustprogress nounwind uwtable
define linkonce_odr hidden noundef zeroext i1 @_ZN4llvh13isa_impl_wrapIN6hermes11InstructionEKPNS1_5ValueEPKS3_E4doitERS5_(ptr noundef nonnull align 8 dereferenceable(8) %Val) #0 comdat align 2 {
entry:
  %Val.addr = alloca ptr, align 8
  %ref.tmp = alloca ptr, align 8
  store ptr %Val, ptr %Val.addr, align 8
  %0 = load ptr, ptr %Val.addr, align 8
  %call = call noundef ptr @_ZN4llvh13simplify_typeIKPN6hermes5ValueEE18getSimplifiedValueERS4_(ptr noundef nonnull align 8 dereferenceable(8) %0)
  store ptr %call, ptr %ref.tmp, align 8
  %call1 = call noundef zeroext i1 @_ZN4llvh13isa_impl_wrapIN6hermes11InstructionEPKNS1_5ValueES5_E4doitERKS5_(ptr noundef nonnull align 8 dereferenceable(8) %ref.tmp)
  ret i1 %call1
}

; Function Attrs: mustprogress nounwind uwtable
define linkonce_odr hidden noundef ptr @_ZN4llvh8dyn_castIN6hermes8VariableENS1_5ValueEEENS_10cast_rettyIT_PT0_E8ret_typeES7_(ptr noundef %Val) #0 comdat {
entry:
  %Val.addr = alloca ptr, align 8
  store ptr %Val, ptr %Val.addr, align 8
  %call = call noundef zeroext i1 @_ZN4llvh3isaIN6hermes8VariableEPNS1_5ValueEEEbRKT0_(ptr noundef nonnull align 8 dereferenceable(8) %Val.addr)
  br i1 %call, label %cond.true, label %cond.false

cond.true:                                        ; preds = %entry
  %0 = load ptr, ptr %Val.addr, align 8
  %call1 = call noundef ptr @_ZN4llvh4castIN6hermes8VariableENS1_5ValueEEENS_10cast_rettyIT_PT0_E8ret_typeES7_(ptr noundef %0)
  br label %cond.end

cond.false:                                       ; preds = %entry
  br label %cond.end

cond.end:                                         ; preds = %cond.false, %cond.true
  %cond = phi ptr [ %call1, %cond.true ], [ null, %cond.false ]
  ret ptr %cond
}

; Function Attrs: mustprogress nounwind uwtable
define linkonce_odr hidden noundef i32 @_ZNK6hermes8Register8getIndexEv(ptr noundef nonnull align 4 dereferenceable(4) %this) #0 comdat align 2 {
entry:
  %this.addr = alloca ptr, align 8
  store ptr %this, ptr %this.addr, align 8
  %this1 = load ptr, ptr %this.addr, align 8
  %value = getelementptr inbounds %"class.hermes::Register", ptr %this1, i32 0, i32 0
  %0 = load i32, ptr %value, align 4
  ret i32 %0
}

; Function Attrs: mustprogress nounwind uwtable
define linkonce_odr hidden noundef zeroext i1 @_ZN4llvh3isaIN6hermes11InstructionEPNS1_5ValueEEEbRKT0_(ptr noundef nonnull align 8 dereferenceable(8) %Val) #0 comdat {
entry:
  %Val.addr = alloca ptr, align 8
  store ptr %Val, ptr %Val.addr, align 8
  %0 = load ptr, ptr %Val.addr, align 8
  %call = call noundef zeroext i1 @_ZN4llvh13isa_impl_wrapIN6hermes11InstructionEKPNS1_5ValueEPKS3_E4doitERS5_(ptr noundef nonnull align 8 dereferenceable(8) %0)
  ret i1 %call
}

; Function Attrs: mustprogress nounwind uwtable
define hidden noundef i32 @_ZN6hermes3hbc7HBCISel11encodeValueEPNS_5ValueE(ptr noundef nonnull align 8 dereferenceable(392) %this, ptr noundef %value) #0 align 2 {
entry:
  %retval = alloca i32, align 4
  %this.addr = alloca ptr, align 8
  %value.addr = alloca ptr, align 8
  %ref.tmp = alloca %"class.hermes::Register", align 4
  %var = alloca ptr, align 8
  store ptr %this, ptr %this.addr, align 8
  store ptr %value, ptr %value.addr, align 8
  %this1 = load ptr, ptr %this.addr, align 8
  %call = call noundef zeroext i1 @_ZN4llvh3isaIN6hermes11InstructionEPNS1_5ValueEEEbRKT0_(ptr noundef nonnull align 8 dereferenceable(8) %value.addr)
  br i1 %call, label %if.then, label %if.else

if.then:                                          ; preds = %entry
  %RA_ = getelementptr inbounds %"class.hermes::hbc::HBCISel", ptr %this1, i32 0, i32 2
  %0 = load ptr, ptr %RA_, align 8
  %1 = load ptr, ptr %value.addr, align 8
  %call2 = call i32 @_ZN6hermes17RegisterAllocator11getRegisterEPNS_5ValueE(ptr noundef nonnull align 8 dereferenceable(1952) %0, ptr noundef %1)
  %coerce.dive = getelementptr inbounds %"class.hermes::Register", ptr %ref.tmp, i32 0, i32 0
  store i32 %call2, ptr %coerce.dive, align 4
  %call3 = call noundef i32 @_ZNK6hermes8Register8getIndexEv(ptr noundef nonnull align 4 dereferenceable(4) %ref.tmp)
  store i32 %call3, ptr %retval, align 4
  br label %return

if.else:                                          ; preds = %entry
  %2 = load ptr, ptr %value.addr, align 8
  %call4 = call noundef ptr @_ZN4llvh8dyn_castIN6hermes8VariableENS1_5ValueEEENS_10cast_rettyIT_PT0_E8ret_typeES7_(ptr noundef %2)
  store ptr %call4, ptr %var, align 8
  %3 = load ptr, ptr %var, align 8
  %tobool = icmp ne ptr %3, null
  br i1 %tobool, label %if.then5, label %if.else7

if.then5:                                         ; preds = %if.else
  %4 = load ptr, ptr %var, align 8
  %call6 = call noundef i32 @_ZNK6hermes8Variable22getIndexInVariableListEv(ptr noundef nonnull align 8 dereferenceable(65) %4)
  store i32 %call6, ptr %retval, align 4
  br label %return

if.else7:                                         ; preds = %if.else
  unreachable

return:                                           ; preds = %if.then5, %if.then
  %5 = load i32, ptr %retval, align 4
  ret i32 %5
}