; Function Attrs: mustprogress nounwind uwtable
define hidden noundef i32 @_ZN6hermes3hbc7HBCISel11encodeValueEPNS_5ValueE(ptr nocapture noundef nonnull readonly align 8 dereferenceable(392) %this, ptr noundef %value) local_unnamed_addr #0 align 2 {
entry:
  %0 = load i8, ptr %value, align 8
  %1 = add i8 %0, -2
  %2 = icmp ult i8 %1, 107
  br i1 %2, label %if.then, label %if.else

if.then:                                          ; preds = %entry
  %RA_ = getelementptr inbounds i8, ptr %this, i64 16
  %3 = load ptr, ptr %RA_, align 8
  %call2 = tail call i32 @_ZN6hermes17RegisterAllocator11getRegisterEPNS_5ValueE(ptr noundef nonnull align 8 dereferenceable(1952) %3, ptr noundef nonnull %value) #19
  br label %return

if.else:                                          ; preds = %entry
  %cmp.i.i.i.i.i.i.i = icmp eq i8 %0, 124
  tail call void @llvm.assume(i1 %cmp.i.i.i.i.i.i.i)
  %call6 = tail call noundef i32 @_ZNK6hermes8Variable22getIndexInVariableListEv(ptr noundef nonnull align 8 dereferenceable(65) %value) #19
  br label %return

return:                                           ; preds = %if.else, %if.then
  %retval.0 = phi i32 [ %call2, %if.then ], [ %call6, %if.else ]
  ret i32 %retval.0
}